target datalayout = "e-m:e-p270:32:32-p271:32:32-p272:64:64-i64:64-i128:128-f80:128-n8:16:32:64-S128"
target triple = "x86_64-pc-linux-gnu"

%"class.std::basic_string_view" = type { i64, ptr }
%struct.WasmEdge_String = type { i32, ptr }
%"class.WasmEdge::Configure" = type { %"class.std::shared_mutex", %"class.std::bitset", %"class.std::bitset.20", %"class.std::unordered_set", %"class.WasmEdge::CompilerConfigure", [3 x i8], %"class.WasmEdge::RuntimeConfigure", %"class.WasmEdge::StatisticsConfigure" }
%"class.std::shared_mutex" = type { %"class.std::__shared_mutex_pthread" }
%"class.std::__shared_mutex_pthread" = type { %union.pthread_rwlock_t }
%union.pthread_rwlock_t = type { %struct.__pthread_rwlock_arch_t }
%struct.__pthread_rwlock_arch_t = type { i32, i32, i32, i32, i32, i32, i32, i32, i8, [7 x i8], i64, i32 }
%"class.std::bitset" = type { %"struct.std::_Base_bitset" }
%"struct.std::_Base_bitset" = type { i64 }
%"class.std::bitset.20" = type { %"struct.std::_Base_bitset" }
%"class.std::unordered_set" = type { %"class.std::_Hashtable" }
%"class.std::_Hashtable" = type { ptr, i64, %"struct.std::__detail::_Hash_node_base", i64, %"struct.std::__detail::_Prime_rehash_policy", ptr }
%"struct.std::__detail::_Hash_node_base" = type { ptr }
%"struct.std::__detail::_Prime_rehash_policy" = type { float, i64 }
%"class.WasmEdge::CompilerConfigure" = type { %"struct.std::atomic", %"struct.std::atomic.23", %"struct.std::atomic.24", %"struct.std::atomic.24", %"struct.std::atomic.24" }
%"struct.std::atomic" = type { i8 }
%"struct.std::atomic.23" = type { i8 }
%"struct.std::atomic.24" = type { %"struct.std::__atomic_base" }
%"struct.std::__atomic_base" = type { i8 }
%"class.WasmEdge::RuntimeConfigure" = type <{ %"struct.std::atomic.25", %"struct.std::atomic.24", %"struct.std::atomic.24", %"struct.std::atomic.24", i8 }>
%"struct.std::atomic.25" = type { %"struct.std::__atomic_base.26" }
%"struct.std::__atomic_base.26" = type { i32 }
%"class.WasmEdge::StatisticsConfigure" = type { %"struct.std::atomic.24", %"struct.std::atomic.24", %"struct.std::atomic.24", %"struct.std::atomic.27" }
%"struct.std::atomic.27" = type { %"struct.std::__atomic_base.28" }
%"struct.std::__atomic_base.28" = type { i64 }
%"class.WasmEdge::Statistics::Statistics" = type { %"class.std::vector", %"struct.std::atomic.27", i64, %"struct.std::atomic.27", %"class.WasmEdge::Timer::Timer" }
%"class.std::vector" = type { %"struct.std::_Vector_base" }
%"struct.std::_Vector_base" = type { %"struct.std::_Vector_base<unsigned long, std::allocator<unsigned long>>::_Vector_impl" }
%"struct.std::_Vector_base<unsigned long, std::allocator<unsigned long>>::_Vector_impl" = type { %"struct.std::_Vector_base<unsigned long, std::allocator<unsigned long>>::_Vector_impl_data" }
%"struct.std::_Vector_base<unsigned long, std::allocator<unsigned long>>::_Vector_impl_data" = type { ptr, ptr, ptr }
%"class.WasmEdge::Timer::Timer" = type { %"class.std::shared_mutex", %"struct.std::array.32", %"struct.std::array.52" }
%"struct.std::array.32" = type { [2 x %"class.std::unordered_map"] }
%"class.std::unordered_map" = type { %"class.std::_Hashtable.33" }
%"class.std::_Hashtable.33" = type { ptr, i64, %"struct.std::__detail::_Hash_node_base", i64, %"struct.std::__detail::_Prime_rehash_policy", ptr }
%"struct.std::array.52" = type { [2 x %"class.std::chrono::duration"] }
%"class.std::chrono::duration" = type { i64 }
%"class.std::vector.55" = type { %"struct.std::_Vector_base.56" }
%"struct.std::_Vector_base.56" = type { %"struct.std::_Vector_base<unsigned char, std::allocator<unsigned char>>::_Vector_impl" }
%"struct.std::_Vector_base<unsigned char, std::allocator<unsigned char>>::_Vector_impl" = type { %"struct.std::_Vector_base<unsigned char, std::allocator<unsigned char>>::_Vector_impl_data" }
%"struct.std::_Vector_base<unsigned char, std::allocator<unsigned char>>::_Vector_impl_data" = type { ptr, ptr, ptr }
%"class.std::vector.75" = type { %"struct.std::_Vector_base.76" }
%"struct.std::_Vector_base.76" = type { %"struct.std::_Vector_base<unsigned int, std::allocator<unsigned int>>::_Vector_impl" }
%"struct.std::_Vector_base<unsigned int, std::allocator<unsigned int>>::_Vector_impl" = type { %"struct.std::_Vector_base<unsigned int, std::allocator<unsigned int>>::_Vector_impl_data" }
%"struct.std::_Vector_base<unsigned int, std::allocator<unsigned int>>::_Vector_impl_data" = type { ptr, ptr, ptr }
%"class.std::unique_ptr" = type { %"struct.std::__uniq_ptr_data" }
%"struct.std::__uniq_ptr_data" = type { %"class.std::__uniq_ptr_impl" }
%"class.std::__uniq_ptr_impl" = type { %"class.std::tuple" }
%"class.std::tuple" = type { %"struct.std::_Tuple_impl" }
%"struct.std::_Tuple_impl" = type { %"struct.std::_Head_base.132" }
%"struct.std::_Head_base.132" = type { ptr }
%"class.std::vector.133" = type { %"struct.std::_Vector_base.134" }
%"struct.std::_Vector_base.134" = type { %"struct.std::_Vector_base<WasmEdge::ValType, std::allocator<WasmEdge::ValType>>::_Vector_impl" }
%"struct.std::_Vector_base<WasmEdge::ValType, std::allocator<WasmEdge::ValType>>::_Vector_impl" = type { %"struct.std::_Vector_base<WasmEdge::ValType, std::allocator<WasmEdge::ValType>>::_Vector_impl_data" }
%"struct.std::_Vector_base<WasmEdge::ValType, std::allocator<WasmEdge::ValType>>::_Vector_impl_data" = type { ptr, ptr, ptr }
%"class.std::mutex" = type { %"class.std::__mutex_base" }
%"class.std::__mutex_base" = type { %union.pthread_mutex_t }
%union.pthread_mutex_t = type { %struct.__pthread_mutex_s }
%struct.__pthread_mutex_s = type { i32, i32, i32, i32, i32, i16, i16, %struct.__pthread_internal_list }
%struct.__pthread_internal_list = type { ptr, ptr }
%"class.WasmEdge::Loader::Loader" = type { %"class.WasmEdge::Configure", %"class.WasmEdge::Loader::Serializer", %"class.WasmEdge::FileMgr", ptr, %"class.std::recursive_mutex", i8, i8, %"class.std::vector.55", %"class.std::vector.55" }
%"class.WasmEdge::Loader::Serializer" = type { ptr }
%"class.WasmEdge::FileMgr" = type { i32, i64, i64, i64, ptr, %"class.std::optional.171", %"class.std::optional.181" }
%"class.std::optional.171" = type { %"struct.std::_Optional_base.172" }
%"struct.std::_Optional_base.172" = type { %"struct.std::_Optional_payload.174" }
%"struct.std::_Optional_payload.174" = type { %"struct.std::_Optional_payload.base.178", [7 x i8] }
%"struct.std::_Optional_payload.base.178" = type { %"struct.std::_Optional_payload_base.base.177" }
%"struct.std::_Optional_payload_base.base.177" = type <{ %"union.std::_Optional_payload_base<WasmEdge::MMap>::_Storage", i8 }>
%"union.std::_Optional_payload_base<WasmEdge::MMap>::_Storage" = type { %"class.WasmEdge::MMap" }
%"class.WasmEdge::MMap" = type { ptr }
%"class.std::optional.181" = type { %"struct.std::_Optional_base.182" }
%"struct.std::_Optional_base.182" = type { %"struct.std::_Optional_payload.184" }
%"struct.std::_Optional_payload.184" = type { %"struct.std::_Optional_payload.base.188", [7 x i8] }
%"struct.std::_Optional_payload.base.188" = type { %"struct.std::_Optional_payload_base.base.187" }
%"struct.std::_Optional_payload_base.base.187" = type <{ %"union.std::_Optional_payload_base<std::vector<unsigned char>>::_Storage", i8 }>
%"union.std::_Optional_payload_base<std::vector<unsigned char>>::_Storage" = type { %"class.std::vector.55" }
%"class.std::recursive_mutex" = type { %"class.std::__recursive_mutex_base" }
%"class.std::__recursive_mutex_base" = type { %union.pthread_mutex_t }
%"class.WasmEdge::Validator::Validator" = type { %"class.WasmEdge::Configure", %"class.WasmEdge::Validator::FormChecker" }
%"class.WasmEdge::Validator::FormChecker" = type { %"class.std::vector.191", %"class.std::vector.75", %"class.std::vector.133", i32, %"class.std::vector.196", %"class.std::vector.133", %"class.std::vector.75", %"class.std::unordered_set.201", i32, i32, %"class.std::vector.221", %"class.std::vector.75", %"class.std::vector.133", %"class.std::vector.75", %"class.std::vector.226", %"class.std::vector.231" }
%"class.std::vector.191" = type { %"struct.std::_Vector_base.192" }
%"struct.std::_Vector_base.192" = type { %"struct.std::_Vector_base<const WasmEdge::AST::SubType *, std::allocator<const WasmEdge::AST::SubType *>>::_Vector_impl" }
%"struct.std::_Vector_base<const WasmEdge::AST::SubType *, std::allocator<const WasmEdge::AST::SubType *>>::_Vector_impl" = type { %"struct.std::_Vector_base<const WasmEdge::AST::SubType *, std::allocator<const WasmEdge::AST::SubType *>>::_Vector_impl_data" }
%"struct.std::_Vector_base<const WasmEdge::AST::SubType *, std::allocator<const WasmEdge::AST::SubType *>>::_Vector_impl_data" = type { ptr, ptr, ptr }
%"class.std::vector.196" = type { %"struct.std::_Vector_base.197" }
%"struct.std::_Vector_base.197" = type { %"struct.std::_Vector_base<std::pair<WasmEdge::ValType, WasmEdge::ValMut>, std::allocator<std::pair<WasmEdge::ValType, WasmEdge::ValMut>>>::_Vector_impl" }
%"struct.std::_Vector_base<std::pair<WasmEdge::ValType, WasmEdge::ValMut>, std::allocator<std::pair<WasmEdge::ValType, WasmEdge::ValMut>>>::_Vector_impl" = type { %"struct.std::_Vector_base<std::pair<WasmEdge::ValType, WasmEdge::ValMut>, std::allocator<std::pair<WasmEdge::ValType, WasmEdge::ValMut>>>::_Vector_impl_data" }
%"struct.std::_Vector_base<std::pair<WasmEdge::ValType, WasmEdge::ValMut>, std::allocator<std::pair<WasmEdge::ValType, WasmEdge::ValMut>>>::_Vector_impl_data" = type { ptr, ptr, ptr }
%"class.std::unordered_set.201" = type { %"class.std::_Hashtable.202" }
%"class.std::_Hashtable.202" = type { ptr, i64, %"struct.std::__detail::_Hash_node_base", i64, %"struct.std::__detail::_Prime_rehash_policy", ptr }
%"class.std::vector.221" = type { %"struct.std::_Vector_base.222" }
%"struct.std::_Vector_base.222" = type { %"struct.std::_Vector_base<WasmEdge::Validator::FormChecker::LocalType, std::allocator<WasmEdge::Validator::FormChecker::LocalType>>::_Vector_impl" }
%"struct.std::_Vector_base<WasmEdge::Validator::FormChecker::LocalType, std::allocator<WasmEdge::Validator::FormChecker::LocalType>>::_Vector_impl" = type { %"struct.std::_Vector_base<WasmEdge::Validator::FormChecker::LocalType, std::allocator<WasmEdge::Validator::FormChecker::LocalType>>::_Vector_impl_data" }
%"struct.std::_Vector_base<WasmEdge::Validator::FormChecker::LocalType, std::allocator<WasmEdge::Validator::FormChecker::LocalType>>::_Vector_impl_data" = type { ptr, ptr, ptr }
%"class.std::vector.226" = type { %"struct.std::_Vector_base.227" }
%"struct.std::_Vector_base.227" = type { %"struct.std::_Vector_base<WasmEdge::Validator::FormChecker::CtrlFrame, std::allocator<WasmEdge::Validator::FormChecker::CtrlFrame>>::_Vector_impl" }
%"struct.std::_Vector_base<WasmEdge::Validator::FormChecker::CtrlFrame, std::allocator<WasmEdge::Validator::FormChecker::CtrlFrame>>::_Vector_impl" = type { %"struct.std::_Vector_base<WasmEdge::Validator::FormChecker::CtrlFrame, std::allocator<WasmEdge::Validator::FormChecker::CtrlFrame>>::_Vector_impl_data" }
%"struct.std::_Vector_base<WasmEdge::Validator::FormChecker::CtrlFrame, std::allocator<WasmEdge::Validator::FormChecker::CtrlFrame>>::_Vector_impl_data" = type { ptr, ptr, ptr }
%"class.std::vector.231" = type { %"struct.std::_Vector_base.232" }
%"struct.std::_Vector_base.232" = type { %"struct.std::_Vector_base<std::optional<WasmEdge::ValType>, std::allocator<std::optional<WasmEdge::ValType>>>::_Vector_impl" }
%"struct.std::_Vector_base<std::optional<WasmEdge::ValType>, std::allocator<std::optional<WasmEdge::ValType>>>::_Vector_impl" = type { %"struct.std::_Vector_base<std::optional<WasmEdge::ValType>, std::allocator<std::optional<WasmEdge::ValType>>>::_Vector_impl_data" }
%"struct.std::_Vector_base<std::optional<WasmEdge::ValType>, std::allocator<std::optional<WasmEdge::ValType>>>::_Vector_impl_data" = type { ptr, ptr, ptr }
%"class.WasmEdge::Executor::Executor" = type { %"class.std::mutex", %"class.std::unordered_multimap", %"class.WasmEdge::Configure", ptr, %"struct.std::atomic.25", %"class.WasmEdge::Executor::HostFuncHandler" }
%"class.std::unordered_multimap" = type { %"class.std::_Hashtable.245" }
%"class.std::_Hashtable.245" = type { ptr, i64, %"struct.std::__detail::_Hash_node_base", i64, %"struct.std::__detail::_Prime_rehash_policy", ptr }
%"class.WasmEdge::Executor::HostFuncHandler" = type { ptr, ptr, %"class.std::function", %"class.std::function", %"class.std::shared_mutex" }
%"class.std::function" = type { %"class.std::_Function_base", ptr }
%"class.std::_Function_base" = type { %"union.std::_Any_data", ptr }
%"union.std::_Any_data" = type { %"union.std::_Nocopy_types" }
%"union.std::_Nocopy_types" = type { { i64, i64 } }
%"class.std::unique_ptr.289" = type { %"struct.std::__uniq_ptr_data.290" }
%"struct.std::__uniq_ptr_data.290" = type { %"class.std::__uniq_ptr_impl.291" }
%"class.std::__uniq_ptr_impl.291" = type { %"class.std::tuple.292" }
%"class.std::tuple.292" = type { %"struct.std::_Tuple_impl.293" }
%"struct.std::_Tuple_impl.293" = type { %"struct.std::_Head_base.296" }
%"struct.std::_Head_base.296" = type { ptr }
%struct.WasmEdge_VMContext = type { %"class.WasmEdge::VM::VM" }
%"class.WasmEdge::VM::VM" = type { %"class.WasmEdge::Configure", %"class.WasmEdge::Statistics::Statistics", i8, %"class.std::shared_mutex", %"class.WasmEdge::Loader::Loader", %"class.WasmEdge::Validator::Validator", %"class.WasmEdge::Executor::Executor", %"class.std::unique_ptr", %"class.std::unique_ptr.644", %"class.std::unique_ptr.289", %"class.std::unique_ptr.652", %"class.std::vector.660", %"class.std::unordered_map.665", %"class.std::vector.660", %"class.std::vector.686", %"class.std::unique_ptr.691", ptr }
%"class.std::unique_ptr.644" = type { %"struct.std::__uniq_ptr_data.645" }
%"struct.std::__uniq_ptr_data.645" = type { %"class.std::__uniq_ptr_impl.646" }
%"class.std::__uniq_ptr_impl.646" = type { %"class.std::tuple.647" }
%"class.std::tuple.647" = type { %"struct.std::_Tuple_impl.648" }
%"struct.std::_Tuple_impl.648" = type { %"struct.std::_Head_base.651" }
%"struct.std::_Head_base.651" = type { ptr }
%"class.std::unique_ptr.652" = type { %"struct.std::__uniq_ptr_data.653" }
%"struct.std::__uniq_ptr_data.653" = type { %"class.std::__uniq_ptr_impl.654" }
%"class.std::__uniq_ptr_impl.654" = type { %"class.std::tuple.655" }
%"class.std::tuple.655" = type { %"struct.std::_Tuple_impl.656" }
%"struct.std::_Tuple_impl.656" = type { %"struct.std::_Head_base.659" }
%"struct.std::_Head_base.659" = type { ptr }
%"class.std::unordered_map.665" = type { %"class.std::_Hashtable.666" }
%"class.std::_Hashtable.666" = type { ptr, i64, %"struct.std::__detail::_Hash_node_base", i64, %"struct.std::__detail::_Prime_rehash_policy", ptr }
%"class.std::vector.660" = type { %"struct.std::_Vector_base.661" }
%"struct.std::_Vector_base.661" = type { %"struct.std::_Vector_base<std::unique_ptr<WasmEdge::Runtime::Instance::ModuleInstance>, std::allocator<std::unique_ptr<WasmEdge::Runtime::Instance::ModuleInstance>>>::_Vector_impl" }
%"struct.std::_Vector_base<std::unique_ptr<WasmEdge::Runtime::Instance::ModuleInstance>, std::allocator<std::unique_ptr<WasmEdge::Runtime::Instance::ModuleInstance>>>::_Vector_impl" = type { %"struct.std::_Vector_base<std::unique_ptr<WasmEdge::Runtime::Instance::ModuleInstance>, std::allocator<std::unique_ptr<WasmEdge::Runtime::Instance::ModuleInstance>>>::_Vector_impl_data" }
%"struct.std::_Vector_base<std::unique_ptr<WasmEdge::Runtime::Instance::ModuleInstance>, std::allocator<std::unique_ptr<WasmEdge::Runtime::Instance::ModuleInstance>>>::_Vector_impl_data" = type { ptr, ptr, ptr }
%"class.std::vector.686" = type { %"struct.std::_Vector_base.687" }
%"struct.std::_Vector_base.687" = type { %"struct.std::_Vector_base<std::unique_ptr<WasmEdge::Runtime::Instance::ComponentInstance>, std::allocator<std::unique_ptr<WasmEdge::Runtime::Instance::ComponentInstance>>>::_Vector_impl" }
%"struct.std::_Vector_base<std::unique_ptr<WasmEdge::Runtime::Instance::ComponentInstance>, std::allocator<std::unique_ptr<WasmEdge::Runtime::Instance::ComponentInstance>>>::_Vector_impl" = type { %"struct.std::_Vector_base<std::unique_ptr<WasmEdge::Runtime::Instance::ComponentInstance>, std::allocator<std::unique_ptr<WasmEdge::Runtime::Instance::ComponentInstance>>>::_Vector_impl_data" }
%"struct.std::_Vector_base<std::unique_ptr<WasmEdge::Runtime::Instance::ComponentInstance>, std::allocator<std::unique_ptr<WasmEdge::Runtime::Instance::ComponentInstance>>>::_Vector_impl_data" = type { ptr, ptr, ptr }
%"class.std::unique_ptr.691" = type { %"struct.std::__uniq_ptr_data.692" }
%"struct.std::__uniq_ptr_data.692" = type { %"class.std::__uniq_ptr_impl.693" }
%"class.std::__uniq_ptr_impl.693" = type { %"class.std::tuple.694" }
%"class.std::tuple.694" = type { %"struct.std::_Tuple_impl.695" }
%"struct.std::_Tuple_impl.695" = type { %"struct.std::_Head_base.698" }
%"struct.std::_Head_base.698" = type { ptr }

; Function Attrs: mustprogress nounwind uwtable
define linkonce_odr hidden void @_ZNSt17basic_string_viewIcSt11char_traitsIcEEC2EPKcm(ptr noundef nonnull align 8 dereferenceable(16) %0, ptr noundef %1, i64 noundef %2) unnamed_addr #0 comdat align 2 {
  %4 = alloca ptr, align 8
  %5 = alloca ptr, align 8
  %6 = alloca i64, align 8
  store ptr %0, ptr %4, align 8
  store ptr %1, ptr %5, align 8
  store i64 %2, ptr %6, align 8
  %7 = load ptr, ptr %4, align 8
  %8 = getelementptr inbounds %"class.std::basic_string_view", ptr %7, i32 0, i32 0
  %9 = load i64, ptr %6, align 8
  store i64 %9, ptr %8, align 8
  %10 = getelementptr inbounds %"class.std::basic_string_view", ptr %7, i32 0, i32 1
  %11 = load ptr, ptr %5, align 8
  store ptr %11, ptr %10, align 8
  ret void
}

; Function Attrs: mustprogress nounwind uwtable
define internal noundef ptr @_ZN12_GLOBAL__N_18toModCxtEPKN8WasmEdge7Runtime8Instance14ModuleInstanceE(ptr noundef %0) #0 {
  %2 = alloca ptr, align 8
  store ptr %0, ptr %2, align 8
  %3 = load ptr, ptr %2, align 8
  ret ptr %3
}

; Function Attrs: mustprogress nounwind uwtable
define internal { i64, ptr } @_ZN12_GLOBAL__N_110genStrViewE15WasmEdge_String(i32 %0, ptr %1) #0 {
  %3 = alloca %"class.std::basic_string_view", align 8
  %4 = alloca %struct.WasmEdge_String, align 8
  %5 = getelementptr inbounds { i32, ptr }, ptr %4, i32 0, i32 0
  store i32 %0, ptr %5, align 8
  %6 = getelementptr inbounds { i32, ptr }, ptr %4, i32 0, i32 1
  store ptr %1, ptr %6, align 8
  %7 = getelementptr inbounds %struct.WasmEdge_String, ptr %4, i32 0, i32 1
  %8 = load ptr, ptr %7, align 8
  %9 = getelementptr inbounds %struct.WasmEdge_String, ptr %4, i32 0, i32 0
  %10 = load i32, ptr %9, align 8
  %11 = zext i32 %10 to i64
  call void @_ZNSt17basic_string_viewIcSt11char_traitsIcEEC2EPKcm(ptr noundef nonnull align 8 dereferenceable(16) %3, ptr noundef %8, i64 noundef %11) #18
  %12 = load { i64, ptr }, ptr %3, align 8
  ret { i64, ptr } %12
}

; Function Attrs: mustprogress nounwind uwtable
define linkonce_odr hidden noundef nonnull align 8 dereferenceable(208) ptr @_ZNK8WasmEdge2VM2VM15getStoreManagerEv(ptr noundef nonnull align 8 dereferenceable(1920) %0) #0 comdat align 2 {
  %2 = alloca ptr, align 8
  store ptr %0, ptr %2, align 8
  %3 = load ptr, ptr %2, align 8
  %4 = getelementptr inbounds %"class.WasmEdge::VM::VM", ptr %3, i32 0, i32 16
  %5 = load ptr, ptr %4, align 8
  ret ptr %5
}

; Function Attrs: mustprogress uwtable
define ptr @WasmEdge_VMGetRegisteredModule(ptr noundef %0, i32 %1, ptr %2) #1 {
  %4 = alloca ptr, align 8
  %5 = alloca %struct.WasmEdge_String, align 8
  %6 = alloca ptr, align 8
  %7 = alloca %"class.std::basic_string_view", align 8
  %8 = alloca %struct.WasmEdge_String, align 8
  %9 = getelementptr inbounds { i32, ptr }, ptr %5, i32 0, i32 0
  store i32 %1, ptr %9, align 8
  %10 = getelementptr inbounds { i32, ptr }, ptr %5, i32 0, i32 1
  store ptr %2, ptr %10, align 8
  store ptr %0, ptr %6, align 8
  %11 = load ptr, ptr %6, align 8
  %12 = icmp ne ptr %11, null
  br i1 %12, label %13, label %32

13:                                               ; preds = %3
  %14 = load ptr, ptr %6, align 8
  %15 = getelementptr inbounds %struct.WasmEdge_VMContext, ptr %14, i32 0, i32 0
  %16 = call noundef nonnull align 8 dereferenceable(208) ptr @_ZNK8WasmEdge2VM2VM15getStoreManagerEv(ptr noundef nonnull align 8 dereferenceable(1920) %15) #18
  call void @llvm.memcpy.p0.p0.i64(ptr align 8 %8, ptr align 8 %5, i64 16, i1 false)
  %17 = getelementptr inbounds { i32, ptr }, ptr %8, i32 0, i32 0
  %18 = load i32, ptr %17, align 8
  %19 = getelementptr inbounds { i32, ptr }, ptr %8, i32 0, i32 1
  %20 = load ptr, ptr %19, align 8
  %21 = call { i64, ptr } @_ZN12_GLOBAL__N_110genStrViewE15WasmEdge_String(i32 %18, ptr %20) #18
  %22 = getelementptr inbounds { i64, ptr }, ptr %7, i32 0, i32 0
  %23 = extractvalue { i64, ptr } %21, 0
  store i64 %23, ptr %22, align 8
  %24 = getelementptr inbounds { i64, ptr }, ptr %7, i32 0, i32 1
  %25 = extractvalue { i64, ptr } %21, 1
  store ptr %25, ptr %24, align 8
  %26 = getelementptr inbounds { i64, ptr }, ptr %7, i32 0, i32 0
  %27 = load i64, ptr %26, align 8
  %28 = getelementptr inbounds { i64, ptr }, ptr %7, i32 0, i32 1
  %29 = load ptr, ptr %28, align 8
  %30 = call noundef ptr @_ZNK8WasmEdge7Runtime12StoreManager10findModuleESt17basic_string_viewIcSt11char_traitsIcEE(ptr noundef nonnull align 8 dereferenceable(208) %16, i64 %27, ptr %29)
  %31 = call noundef ptr @_ZN12_GLOBAL__N_18toModCxtEPKN8WasmEdge7Runtime8Instance14ModuleInstanceE(ptr noundef %30) #18
  store ptr %31, ptr %4, align 8
  br label %33

32:                                               ; preds = %3
  store ptr null, ptr %4, align 8
  br label %33

33:                                               ; preds = %32, %13
  %34 = load ptr, ptr %4, align 8
  ret ptr %34
}