; Function Attrs: mustprogress uwtable
define noundef ptr @WasmEdge_VMGetRegisteredModule(ptr noundef readonly %0, i32 %1, ptr %2) local_unnamed_addr #1 {
  %.not = icmp eq ptr %0, null
  br i1 %.not, label %9, label %4

4:                                                ; preds = %3
  %5 = getelementptr inbounds i8, ptr %0, i64 1912
  %6 = load ptr, ptr %5, align 8
  %7 = zext i32 %1 to i64
  %8 = tail call noundef ptr @_ZNK8WasmEdge7Runtime12StoreManager10findModuleESt17basic_string_viewIcSt11char_traitsIcEE(ptr noundef nonnull align 8 dereferenceable(208) %6, i64 %7, ptr %2)
  br label %9

9:                                                ; preds = %3, %4
  %.0 = phi ptr [ %8, %4 ], [ null, %3 ]
  ret ptr %.0
}